target datalayout = "e-m:e-p270:32:32-p271:32:32-p272:64:64-i64:64-i128:128-f80:128-n8:16:32:64-S128"
target triple = "x86_64-pc-linux-gnu"

; Function Attrs: mustprogress nounwind uwtable
define noundef i32 @_ZNK10open_spiel8checkers13CheckersState16ObservationPlaneENS0_9CellStateEi(ptr noundef nonnull align 8 dereferenceable(136) %0, i32 noundef %1, i32 noundef %2) #5 align 2 {
  %4 = alloca i32, align 4
  %5 = alloca ptr, align 8
  %6 = alloca i32, align 4
  %7 = alloca i32, align 4
  %8 = alloca i32, align 4
  store ptr %0, ptr %5, align 8
  store i32 %1, ptr %6, align 4
  store i32 %2, ptr %7, align 4
  %9 = load i32, ptr %6, align 4
  switch i32 %9, label %15 [
    i32 1, label %10
    i32 3, label %11
    i32 4, label %12
    i32 2, label %13
    i32 0, label %14
  ]

10:                                               ; preds = %3
  store i32 0, ptr %8, align 4
  br label %16

11:                                               ; preds = %3
  store i32 1, ptr %8, align 4
  br label %16

12:                                               ; preds = %3
  store i32 2, ptr %8, align 4
  br label %16

13:                                               ; preds = %3
  store i32 3, ptr %8, align 4
  br label %16

14:                                               ; preds = %3
  br label %15

15:                                               ; preds = %14, %3
  store i32 4, ptr %4, align 4
  br label %24

16:                                               ; preds = %13, %12, %11, %10
  %17 = load i32, ptr %7, align 4
  %18 = icmp eq i32 %17, 0
  br i1 %18, label %19, label %21

19:                                               ; preds = %16
  %20 = load i32, ptr %8, align 4
  store i32 %20, ptr %4, align 4
  br label %24

21:                                               ; preds = %16
  %22 = load i32, ptr %8, align 4
  %23 = sub nsw i32 3, %22
  store i32 %23, ptr %4, align 4
  br label %24

24:                                               ; preds = %21, %19, %15
  %25 = load i32, ptr %4, align 4
  ret i32 %25
}