; Function Attrs: mustprogress nofree norecurse nosync nounwind willreturn memory(none) uwtable
define noundef range(i32 0, 5) i32 @_ZNK10open_spiel8checkers13CheckersState16ObservationPlaneENS0_9CellStateEi(ptr nocapture noundef nonnull readnone align 8 dereferenceable(136) %0, i32 noundef %1, i32 noundef %2) local_unnamed_addr #9 align 2 {
  %switch.tableidx = add i32 %1, -1
  %4 = icmp ult i32 %switch.tableidx, 4
  br i1 %4, label %switch.lookup, label %8

switch.lookup:                                    ; preds = %3
  %5 = zext nneg i32 %switch.tableidx to i64
  %switch.gep = getelementptr inbounds [4 x i32], ptr @switch.table._ZNK10open_spiel8checkers13CheckersState17ObservationTensorEiN4absl7debian24SpanIfEE, i64 0, i64 %5
  %switch.load = load i32, ptr %switch.gep, align 4
  %6 = icmp eq i32 %2, 0
  %7 = xor i32 %switch.load, 3
  %spec.select = select i1 %6, i32 %switch.load, i32 %7
  br label %8

8:                                                ; preds = %3, %switch.lookup
  %.05 = phi i32 [ 4, %3 ], [ %spec.select, %switch.lookup ]
  ret i32 %.05
}